; Function Attrs: mustprogress uwtable
define internal fastcc void @_ZN3mbpL6mk_neqER11ast_managerP4exprS3_(ptr dead_on_unwind noalias nonnull writable writeonly align 8 captures(none) initializes((0, 16)) %0, ptr noundef nonnull align 8 dereferenceable(976) %1, ptr noundef %2, ptr noundef %3) unnamed_addr #3 {
  %5 = getelementptr inbounds nuw i8, ptr %2, i64 4
  %6 = load i32, ptr %5, align 4
  %7 = and i32 %6, 65535
  %8 = icmp eq i32 %7, 0
  br i1 %8, label %9, label %_ZNK11ast_manager6is_notEPK4exprRPS0_.exit.thread

9:                                                ; preds = %4
  %10 = getelementptr inbounds nuw i8, ptr %2, i64 16
  %11 = load ptr, ptr %10, align 8, !tbaa !48
  %12 = getelementptr inbounds nuw i8, ptr %11, i64 24
  %13 = load ptr, ptr %12, align 8, !tbaa !54
  %.not.i.i.i.i.i = icmp eq ptr %13, null
  br i1 %.not.i.i.i.i.i, label %_ZNK11ast_manager6is_notEPK4exprRPS0_.exit.thread, label %_ZNK11ast_manager6is_notEPK4expr.exit.i

_ZNK11ast_manager6is_notEPK4expr.exit.i:          ; preds = %9
  %14 = load i32, ptr %13, align 8, !tbaa !58
  %15 = icmp eq i32 %14, 0
  %16 = getelementptr inbounds nuw i8, ptr %13, i64 4
  %17 = load i32, ptr %16, align 4
  %18 = icmp eq i32 %17, 8
  %19 = select i1 %15, i1 %18, i1 false
  br i1 %19, label %20, label %_ZNK11ast_manager6is_notEPK4exprRPS0_.exit.thread

20:                                               ; preds = %_ZNK11ast_manager6is_notEPK4expr.exit.i
  %21 = getelementptr inbounds nuw i8, ptr %2, i64 24
  %22 = load i32, ptr %21, align 8, !tbaa !181
  %23 = icmp eq i32 %22, 1
  br i1 %23, label %_ZNK11ast_manager6is_notEPK4exprRPS0_.exit, label %_ZNK11ast_manager6is_notEPK4exprRPS0_.exit.thread

_ZNK11ast_manager6is_notEPK4exprRPS0_.exit:       ; preds = %20
  %24 = getelementptr inbounds nuw i8, ptr %2, i64 32
  %25 = load ptr, ptr %24, align 8, !tbaa !173
  %26 = icmp eq ptr %25, %3
  br i1 %26, label %49, label %_ZNK11ast_manager6is_notEPK4exprRPS0_.exit.thread

_ZNK11ast_manager6is_notEPK4exprRPS0_.exit.thread: ; preds = %9, %4, %_ZNK11ast_manager6is_notEPK4expr.exit.i, %20, %_ZNK11ast_manager6is_notEPK4exprRPS0_.exit
  %27 = getelementptr inbounds nuw i8, ptr %3, i64 4
  %28 = load i32, ptr %27, align 4
  %29 = and i32 %28, 65535
  %30 = icmp eq i32 %29, 0
  br i1 %30, label %31, label %_ZNK11ast_manager6is_notEPK4exprRPS0_.exit24.thread

31:                                               ; preds = %_ZNK11ast_manager6is_notEPK4exprRPS0_.exit.thread
  %32 = getelementptr inbounds nuw i8, ptr %3, i64 16
  %33 = load ptr, ptr %32, align 8, !tbaa !48
  %34 = getelementptr inbounds nuw i8, ptr %33, i64 24
  %35 = load ptr, ptr %34, align 8, !tbaa !54
  %.not.i.i.i.i.i22 = icmp eq ptr %35, null
  br i1 %.not.i.i.i.i.i22, label %_ZNK11ast_manager6is_notEPK4exprRPS0_.exit24.thread, label %_ZNK11ast_manager6is_notEPK4expr.exit.i23

_ZNK11ast_manager6is_notEPK4expr.exit.i23:        ; preds = %31
  %36 = load i32, ptr %35, align 8, !tbaa !58
  %37 = icmp eq i32 %36, 0
  %38 = getelementptr inbounds nuw i8, ptr %35, i64 4
  %39 = load i32, ptr %38, align 4
  %40 = icmp eq i32 %39, 8
  %41 = select i1 %37, i1 %40, i1 false
  br i1 %41, label %42, label %_ZNK11ast_manager6is_notEPK4exprRPS0_.exit24.thread

42:                                               ; preds = %_ZNK11ast_manager6is_notEPK4expr.exit.i23
  %43 = getelementptr inbounds nuw i8, ptr %3, i64 24
  %44 = load i32, ptr %43, align 8, !tbaa !181
  %45 = icmp eq i32 %44, 1
  br i1 %45, label %_ZNK11ast_manager6is_notEPK4exprRPS0_.exit24, label %_ZNK11ast_manager6is_notEPK4exprRPS0_.exit24.thread

_ZNK11ast_manager6is_notEPK4exprRPS0_.exit24:     ; preds = %42
  %46 = getelementptr inbounds nuw i8, ptr %3, i64 32
  %47 = load ptr, ptr %46, align 8, !tbaa !173
  %48 = icmp eq ptr %47, %2
  br i1 %48, label %49, label %_ZNK11ast_manager6is_notEPK4exprRPS0_.exit24.thread

49:                                               ; preds = %_ZNK11ast_manager6is_notEPK4exprRPS0_.exit24, %_ZNK11ast_manager6is_notEPK4exprRPS0_.exit
  %50 = getelementptr inbounds nuw i8, ptr %1, i64 856
  %51 = load ptr, ptr %50, align 8, !tbaa !256
  store ptr %51, ptr %0, align 8, !tbaa !79
  %52 = getelementptr inbounds nuw i8, ptr %0, i64 8
  store ptr %1, ptr %52, align 8, !tbaa !96
  %.not.i.i = icmp eq ptr %51, null
  br i1 %.not.i.i, label %_ZN7obj_refI4expr11ast_managerEC2EPS0_RS1_.exit, label %_ZN7obj_refI4expr11ast_managerEC2EPS0_RS1_.exit.sink.split

_ZNK11ast_manager6is_notEPK4exprRPS0_.exit24.thread: ; preds = %31, %_ZNK11ast_manager6is_notEPK4exprRPS0_.exit.thread, %_ZNK11ast_manager6is_notEPK4expr.exit.i23, %42, %_ZNK11ast_manager6is_notEPK4exprRPS0_.exit24
  %53 = tail call noundef zeroext i1 @_ZNK11ast_manager12are_distinctEP4exprS1_(ptr noundef nonnull align 8 dereferenceable(976) %1, ptr noundef nonnull %2, ptr noundef nonnull %3)
  %54 = getelementptr inbounds nuw i8, ptr %0, i64 8
  br i1 %53, label %55, label %58

55:                                               ; preds = %_ZNK11ast_manager6is_notEPK4exprRPS0_.exit24.thread
  %56 = getelementptr inbounds nuw i8, ptr %1, i64 856
  %57 = load ptr, ptr %56, align 8, !tbaa !256
  store ptr %57, ptr %0, align 8, !tbaa !79
  store ptr %1, ptr %54, align 8, !tbaa !96
  %.not.i.i25 = icmp eq ptr %57, null
  br i1 %.not.i.i25, label %_ZN7obj_refI4expr11ast_managerEC2EPS0_RS1_.exit, label %_ZN7obj_refI4expr11ast_managerEC2EPS0_RS1_.exit.sink.split

58:                                               ; preds = %_ZNK11ast_manager6is_notEPK4exprRPS0_.exit24.thread
  %59 = tail call noundef ptr @_ZN11ast_manager6mk_appEiiP4exprS1_(ptr noundef nonnull align 8 dereferenceable(976) %1, i32 noundef 0, i32 noundef 2, ptr noundef nonnull %2, ptr noundef nonnull %3)
  %60 = tail call noundef ptr @_ZN11ast_manager6mk_appEiiP4expr(ptr noundef nonnull align 8 dereferenceable(976) %1, i32 noundef 0, i32 noundef 8, ptr noundef %59)
  store ptr %60, ptr %0, align 8, !tbaa !79
  store ptr %1, ptr %54, align 8, !tbaa !96
  %.not.i.i28 = icmp eq ptr %60, null
  br i1 %.not.i.i28, label %_ZN7obj_refI4expr11ast_managerEC2EPS0_RS1_.exit, label %_ZN7obj_refI4expr11ast_managerEC2EPS0_RS1_.exit.sink.split

_ZN7obj_refI4expr11ast_managerEC2EPS0_RS1_.exit.sink.split: ; preds = %58, %55, %49
  %.sink41 = phi ptr [ %51, %49 ], [ %57, %55 ], [ %60, %58 ]
  %61 = getelementptr inbounds nuw i8, ptr %.sink41, i64 8
  %62 = load i32, ptr %61, align 4, !tbaa !171
  %63 = add i32 %62, 1
  store i32 %63, ptr %61, align 4, !tbaa !171
  br label %_ZN7obj_refI4expr11ast_managerEC2EPS0_RS1_.exit

_ZN7obj_refI4expr11ast_managerEC2EPS0_RS1_.exit:  ; preds = %_ZN7obj_refI4expr11ast_managerEC2EPS0_RS1_.exit.sink.split, %58, %55, %49
  ret void
}